target datalayout = "e-m:e-p270:32:32-p271:32:32-p272:64:64-i64:64-i128:128-f80:128-n8:16:32:64-S128"
target triple = "x86_64-pc-linux-gnu"

%struct.expert_field = type { i32, i32 }
%struct._packet_info = type { ptr, ptr, i32, i32, %struct.nstime_t, %struct.nstime_t, %struct.nstime_t, i8, ptr, ptr, ptr, ptr, %struct._address, %struct._address, %struct._address, %struct._address, %struct._address, %struct._address, i32, ptr, i8, [3 x i8], %struct.anon, i32, i32, i32, i32, ptr, i8, ptr, ptr, i16, i16, i32, i32, i16, i32, i32, ptr, ptr, ptr, i8, i8, i16, i16, i16, i32, i16, i16, ptr, ptr, ptr, ptr, ptr, i32, i32 }
%struct.nstime_t = type { i64, i32 }
%struct._address = type { i32, i32, ptr, ptr }
%struct.anon = type { i8, [3 x i8] }
%struct.e_in6_addr = type { [16 x i8] }

@hf_bgp_flowspec_nlri_ipv6_pref_len = internal global i32 0, align 4
@hf_bgp_flowspec_nlri_ipv6_pref_offset = internal global i32 0, align 4
@ett_bgp_prefix = internal global i32 0, align 4
@ei_bgp_prefix_length_err = internal global %struct.expert_field zeroinitializer, align 4
@.str.1834 = private unnamed_addr constant [6 x i8] c"%s/%u\00", align 1
@.str.1845 = private unnamed_addr constant [9 x i8] c" (%s/%u)\00", align 1
@.str.1856 = private unnamed_addr constant [21 x i8] c"Length is invalid %u\00", align 1

; Function Attrs: inlinehint nounwind null_pointer_is_valid sspstrong uwtable
define internal void @set_address(ptr noundef %0, i32 noundef %1, i32 noundef %2, ptr noundef %3) #4 {
  %5 = alloca ptr, align 8
  %6 = alloca i32, align 4
  %7 = alloca i32, align 4
  %8 = alloca ptr, align 8
  store ptr %0, ptr %5, align 8
  store i32 %1, ptr %6, align 4
  store i32 %2, ptr %7, align 4
  store ptr %3, ptr %8, align 8
  %9 = load i32, ptr %7, align 4
  %10 = icmp eq i32 %9, 0
  br i1 %10, label %11, label %14

11:                                               ; preds = %4
  br label %12

12:                                               ; preds = %11
  br label %13

13:                                               ; preds = %12
  br label %19

14:                                               ; preds = %4
  br label %15

15:                                               ; preds = %14
  br label %16

16:                                               ; preds = %15
  br label %17

17:                                               ; preds = %16
  br label %18

18:                                               ; preds = %17
  br label %19

19:                                               ; preds = %18, %13
  %20 = load i32, ptr %6, align 4
  %21 = load ptr, ptr %5, align 8
  %22 = getelementptr inbounds nuw %struct._address, ptr %21, i32 0, i32 0
  store i32 %20, ptr %22, align 8
  %23 = load i32, ptr %7, align 4
  %24 = load ptr, ptr %5, align 8
  %25 = getelementptr inbounds nuw %struct._address, ptr %24, i32 0, i32 1
  store i32 %23, ptr %25, align 4
  %26 = load ptr, ptr %8, align 8
  %27 = load ptr, ptr %5, align 8
  %28 = getelementptr inbounds nuw %struct._address, ptr %27, i32 0, i32 2
  store ptr %26, ptr %28, align 8
  %29 = load ptr, ptr %5, align 8
  %30 = getelementptr inbounds nuw %struct._address, ptr %29, i32 0, i32 3
  store ptr null, ptr %30, align 8
  ret void
}

; Function Attrs: null_pointer_is_valid sspstrong uwtable
define internal i32 @decode_fspec_match_prefix6(ptr noundef %0, ptr noundef %1, i32 noundef %2, ptr noundef %3, i32 noundef %4, i16 noundef zeroext %5, ptr noundef %6) #0 {
  %8 = alloca i32, align 4
  %9 = alloca ptr, align 8
  %10 = alloca ptr, align 8
  %11 = alloca i32, align 4
  %12 = alloca ptr, align 8
  %13 = alloca i32, align 4
  %14 = alloca i16, align 2
  %15 = alloca ptr, align 8
  %16 = alloca ptr, align 8
  %17 = alloca %struct.e_in6_addr, align 1
  %18 = alloca %struct._address, align 8
  %19 = alloca i32, align 4
  %20 = alloca i32, align 4
  %21 = alloca i32, align 4
  %22 = alloca i32, align 4
  %23 = alloca i32, align 4
  store ptr %0, ptr %9, align 8
  store ptr %1, ptr %10, align 8
  store i32 %2, ptr %11, align 4
  store ptr %3, ptr %12, align 8
  store i32 %4, ptr %13, align 4
  store i16 %5, ptr %14, align 2
  store ptr %6, ptr %15, align 8
  call void @llvm.lifetime.start.p0(i64 8, ptr %16) #6
  call void @llvm.lifetime.start.p0(i64 16, ptr %17) #6
  call void @llvm.lifetime.start.p0(i64 24, ptr %18) #6
  call void @llvm.lifetime.start.p0(i64 4, ptr %19) #6
  call void @llvm.lifetime.start.p0(i64 4, ptr %20) #6
  call void @llvm.lifetime.start.p0(i64 4, ptr %21) #6
  store i32 1, ptr %21, align 4
  call void @llvm.lifetime.start.p0(i64 4, ptr %22) #6
  store i32 0, ptr %22, align 4
  %24 = load ptr, ptr %12, align 8
  %25 = load i32, ptr %13, align 4
  %26 = call zeroext i8 @tvb_get_uint8(ptr noundef %24, i32 noundef %25)
  %27 = zext i8 %26 to i32
  store i32 %27, ptr %19, align 4
  %28 = load i32, ptr %19, align 4
  %29 = icmp eq i32 %28, 0
  br i1 %29, label %30, label %36

30:                                               ; preds = %7
  %31 = load ptr, ptr %12, align 8
  %32 = load i32, ptr %13, align 4
  %33 = add i32 %32, 1
  %34 = call zeroext i8 @tvb_get_uint8(ptr noundef %31, i32 noundef %33)
  %35 = zext i8 %34 to i32
  store i32 %35, ptr %19, align 4
  store i32 0, ptr %21, align 4
  store i32 1, ptr %22, align 4
  br label %36

36:                                               ; preds = %30, %7
  %37 = load ptr, ptr %12, align 8
  %38 = load i32, ptr %13, align 4
  %39 = add i32 %38, 2
  %40 = load i32, ptr %19, align 4
  %41 = call i32 @tvb_get_ipv6_addr_with_prefix_len(ptr noundef %37, i32 noundef %39, ptr noundef %17, i32 noundef %40)
  store i32 %41, ptr %20, align 4
  %42 = load i32, ptr %20, align 4
  %43 = icmp slt i32 %42, 0
  br i1 %43, label %44, label %49

44:                                               ; preds = %36
  %45 = load ptr, ptr %15, align 8
  %46 = load ptr, ptr %10, align 8
  %47 = load i32, ptr %19, align 4
  %48 = call ptr (ptr, ptr, ptr, ptr, ...) @expert_add_info_format(ptr noundef %45, ptr noundef %46, ptr noundef @ei_bgp_prefix_length_err, ptr noundef @.str.1856, i32 noundef %47)
  store i32 -1, ptr %8, align 4
  store i32 1, ptr %23, align 4
  br label %106

49:                                               ; preds = %36
  %50 = getelementptr inbounds nuw %struct.e_in6_addr, ptr %17, i32 0, i32 0
  %51 = getelementptr inbounds [16 x i8], ptr %50, i64 0, i64 0
  call void @set_address(ptr noundef %18, i32 noundef 3, i32 noundef 16, ptr noundef %51)
  %52 = load ptr, ptr %9, align 8
  %53 = load ptr, ptr %12, align 8
  %54 = load i32, ptr %13, align 4
  %55 = load i16, ptr %14, align 2
  %56 = zext i16 %55 to i32
  %57 = icmp ne i32 %56, 0
  br i1 %57, label %58, label %61

58:                                               ; preds = %49
  %59 = load i16, ptr %14, align 2
  %60 = zext i16 %59 to i32
  br label %64

61:                                               ; preds = %49
  %62 = load i32, ptr %20, align 4
  %63 = add i32 1, %62
  br label %64

64:                                               ; preds = %61, %58
  %65 = phi i32 [ %60, %58 ], [ %63, %61 ]
  %66 = load i32, ptr @ett_bgp_prefix, align 4
  %67 = load ptr, ptr %15, align 8
  %68 = getelementptr inbounds nuw %struct._packet_info, ptr %67, i32 0, i32 51
  %69 = load ptr, ptr %68, align 8
  %70 = call ptr @address_to_str(ptr noundef %69, ptr noundef %18)
  %71 = load i32, ptr %19, align 4
  %72 = call ptr (ptr, ptr, i32, i32, i32, ptr, ptr, ...) @proto_tree_add_subtree_format(ptr noundef %52, ptr noundef %53, i32 noundef %54, i32 noundef %65, i32 noundef %66, ptr noundef null, ptr noundef @.str.1834, ptr noundef %70, i32 noundef %71)
  store ptr %72, ptr %16, align 8
  %73 = load ptr, ptr %16, align 8
  %74 = load i32, ptr @hf_bgp_flowspec_nlri_ipv6_pref_len, align 4
  %75 = load ptr, ptr %12, align 8
  %76 = load i32, ptr %13, align 4
  %77 = load i32, ptr %22, align 4
  %78 = add i32 %76, %77
  %79 = call ptr @proto_tree_add_item(ptr noundef %73, i32 noundef %74, ptr noundef %75, i32 noundef %78, i32 noundef 1, i32 noundef 0)
  %80 = load ptr, ptr %16, align 8
  %81 = load i32, ptr @hf_bgp_flowspec_nlri_ipv6_pref_offset, align 4
  %82 = load ptr, ptr %12, align 8
  %83 = load i32, ptr %13, align 4
  %84 = load i32, ptr %21, align 4
  %85 = add i32 %83, %84
  %86 = call ptr @proto_tree_add_item(ptr noundef %80, i32 noundef %81, ptr noundef %82, i32 noundef %85, i32 noundef 1, i32 noundef 0)
  %87 = load ptr, ptr %16, align 8
  %88 = load i32, ptr %11, align 4
  %89 = load ptr, ptr %12, align 8
  %90 = load i32, ptr %13, align 4
  %91 = add i32 %90, 2
  %92 = load i32, ptr %20, align 4
  %93 = call ptr @proto_tree_add_ipv6(ptr noundef %87, i32 noundef %88, ptr noundef %89, i32 noundef %91, i32 noundef %92, ptr noundef %17)
  %94 = load ptr, ptr %10, align 8
  %95 = icmp ne ptr %94, null
  br i1 %95, label %96, label %103

96:                                               ; preds = %64
  %97 = load ptr, ptr %10, align 8
  %98 = load ptr, ptr %15, align 8
  %99 = getelementptr inbounds nuw %struct._packet_info, ptr %98, i32 0, i32 51
  %100 = load ptr, ptr %99, align 8
  %101 = call ptr @address_to_str(ptr noundef %100, ptr noundef %18)
  %102 = load i32, ptr %19, align 4
  call void (ptr, ptr, ...) @proto_item_append_text(ptr noundef %97, ptr noundef @.str.1845, ptr noundef %101, i32 noundef %102)
  br label %103

103:                                              ; preds = %96, %64
  %104 = load i32, ptr %20, align 4
  %105 = add i32 2, %104
  store i32 %105, ptr %8, align 4
  store i32 1, ptr %23, align 4
  br label %106

106:                                              ; preds = %103, %44
  call void @llvm.lifetime.end.p0(i64 4, ptr %22) #6
  call void @llvm.lifetime.end.p0(i64 4, ptr %21) #6
  call void @llvm.lifetime.end.p0(i64 4, ptr %20) #6
  call void @llvm.lifetime.end.p0(i64 4, ptr %19) #6
  call void @llvm.lifetime.end.p0(i64 24, ptr %18) #6
  call void @llvm.lifetime.end.p0(i64 16, ptr %17) #6
  call void @llvm.lifetime.end.p0(i64 8, ptr %16) #6
  %107 = load i32, ptr %8, align 4
  ret i32 %107
}