; Function Attrs: null_pointer_is_valid sspstrong uwtable
define internal fastcc range(i32 -1, -2147483646) i32 @decode_fspec_match_prefix6(ptr noundef %0, ptr noundef %1, i32 noundef %2, ptr noundef %3, i32 noundef %4, ptr noundef %5) unnamed_addr #0 {
  %7 = alloca %struct.e_in6_addr, align 1
  %8 = alloca %struct._address, align 8
  call void @llvm.lifetime.start.p0(i64 16, ptr nonnull %7) #5
  call void @llvm.lifetime.start.p0(i64 24, ptr nonnull %8) #5
  %9 = tail call zeroext i8 @tvb_get_uint8(ptr noundef %3, i32 noundef %4)
  %10 = icmp eq i8 %9, 0
  br i1 %10, label %11, label %14

11:                                               ; preds = %6
  %12 = add i32 %4, 1
  %13 = tail call zeroext i8 @tvb_get_uint8(ptr noundef %3, i32 noundef %12)
  br label %14

14:                                               ; preds = %11, %6
  %.040.in = phi i8 [ %13, %11 ], [ %9, %6 ]
  %.038 = phi i32 [ 0, %11 ], [ 1, %6 ]
  %.0 = phi i32 [ 1, %11 ], [ 0, %6 ]
  %.040 = zext i8 %.040.in to i32
  %15 = add i32 %4, 2
  %16 = call i32 @tvb_get_ipv6_addr_with_prefix_len(ptr noundef %3, i32 noundef %15, ptr noundef nonnull %7, i32 noundef %.040)
  %17 = icmp slt i32 %16, 0
  br i1 %17, label %18, label %20

18:                                               ; preds = %14
  %19 = call ptr (ptr, ptr, ptr, ptr, ...) @expert_add_info_format(ptr noundef %5, ptr noundef %1, ptr noundef nonnull @ei_bgp_prefix_length_err, ptr noundef nonnull @.str.1856, i32 noundef %.040)
  br label %42

20:                                               ; preds = %14
  store i32 3, ptr %8, align 8
  %21 = getelementptr inbounds nuw i8, ptr %8, i64 4
  store i32 16, ptr %21, align 4
  %22 = getelementptr inbounds nuw i8, ptr %8, i64 8
  store ptr %7, ptr %22, align 8
  %23 = getelementptr inbounds nuw i8, ptr %8, i64 16
  store ptr null, ptr %23, align 8
  %24 = add nuw i32 %16, 1
  %25 = load i32, ptr @ett_bgp_prefix, align 4
  %26 = getelementptr inbounds nuw i8, ptr %5, i64 408
  %27 = load ptr, ptr %26, align 8
  %28 = call ptr @address_to_str(ptr noundef %27, ptr noundef nonnull %8)
  %29 = call ptr (ptr, ptr, i32, i32, i32, ptr, ptr, ...) @proto_tree_add_subtree_format(ptr noundef %0, ptr noundef %3, i32 noundef %4, i32 noundef %24, i32 noundef %25, ptr noundef null, ptr noundef nonnull @.str.1834, ptr noundef %28, i32 noundef %.040)
  %30 = load i32, ptr @hf_bgp_flowspec_nlri_ipv6_pref_len, align 4
  %31 = add i32 %.0, %4
  %32 = call ptr @proto_tree_add_item(ptr noundef %29, i32 noundef %30, ptr noundef %3, i32 noundef %31, i32 noundef 1, i32 noundef 0)
  %33 = load i32, ptr @hf_bgp_flowspec_nlri_ipv6_pref_offset, align 4
  %34 = add i32 %.038, %4
  %35 = call ptr @proto_tree_add_item(ptr noundef %29, i32 noundef %33, ptr noundef %3, i32 noundef %34, i32 noundef 1, i32 noundef 0)
  %36 = call ptr @proto_tree_add_ipv6(ptr noundef %29, i32 noundef %2, ptr noundef %3, i32 noundef %15, i32 noundef %16, ptr noundef nonnull %7)
  %.not = icmp eq ptr %1, null
  br i1 %.not, label %40, label %37

37:                                               ; preds = %20
  %38 = load ptr, ptr %26, align 8
  %39 = call ptr @address_to_str(ptr noundef %38, ptr noundef nonnull %8)
  call void (ptr, ptr, ...) @proto_item_append_text(ptr noundef nonnull %1, ptr noundef nonnull @.str.1845, ptr noundef %39, i32 noundef %.040)
  br label %40

40:                                               ; preds = %37, %20
  %41 = add nuw i32 %16, 2
  br label %42

42:                                               ; preds = %40, %18
  %.039 = phi i32 [ -1, %18 ], [ %41, %40 ]
  call void @llvm.lifetime.end.p0(i64 24, ptr nonnull %8) #5
  call void @llvm.lifetime.end.p0(i64 16, ptr nonnull %7) #5
  ret i32 %.039
}